; Function Attrs: mustprogress nounwind uwtable
define hidden void @_ZN4cvc58internal8decision12JustifyStackD2Ev(ptr noundef nonnull align 8 dereferenceable(184) initializes((136, 144)) %0) unnamed_addr #5 align 2 personality ptr @__gxx_personality_v0 {
  %2 = getelementptr inbounds nuw i8, ptr %0, i64 136
  store ptr getelementptr inbounds nuw inrange(-16, 32) (i8, ptr @_ZTVN4cvc57context3CDOImEE, i64 16), ptr %2, align 8, !tbaa !26
  invoke void @_ZN4cvc57context10ContextObj7destroyEv(ptr noundef nonnull align 8 dereferenceable(48) %2)
          to label %_ZN4cvc57context3CDOImED2Ev.exit unwind label %3

3:                                                ; preds = %1
  %4 = landingpad { ptr, i32 }
          catch ptr null
  %5 = extractvalue { ptr, i32 } %4, 0
  tail call void @__clang_call_terminate(ptr %5) #28
  unreachable

_ZN4cvc57context3CDOImED2Ev.exit:                 ; preds = %1
  %6 = getelementptr inbounds nuw i8, ptr %0, i64 56
  tail call void @_ZN4cvc57context6CDListISt10shared_ptrINS_8internal8decision11JustifyInfoEENS0_14DefaultCleanUpIS6_EESaIS6_EED2Ev(ptr noundef nonnull align 8 dereferenceable(74) %6) #25
  %7 = getelementptr inbounds nuw i8, ptr %0, i64 8
  store ptr getelementptr inbounds nuw inrange(-16, 32) (i8, ptr @_ZTVN4cvc57context3CDOINS_8internal12NodeTemplateILb0EEEEE, i64 16), ptr %7, align 8, !tbaa !26
  invoke void @_ZN4cvc57context10ContextObj7destroyEv(ptr noundef nonnull align 8 dereferenceable(48) %7)
          to label %_ZN4cvc57context3CDOINS_8internal12NodeTemplateILb0EEEED2Ev.exit unwind label %8

8:                                                ; preds = %_ZN4cvc57context3CDOImED2Ev.exit
  %9 = landingpad { ptr, i32 }
          catch ptr null
  %10 = extractvalue { ptr, i32 } %9, 0
  tail call void @__clang_call_terminate(ptr %10) #28
  unreachable

_ZN4cvc57context3CDOINS_8internal12NodeTemplateILb0EEEED2Ev.exit: ; preds = %_ZN4cvc57context3CDOImED2Ev.exit
  ret void
}